; Function Attrs: nounwind uwtable
define noundef ptr @ggml_repeat_back(ptr noundef captures(none) %0, ptr noundef %1, ptr noundef readonly captures(none) %2) local_unnamed_addr #4 {
  %4 = getelementptr inbounds nuw i8, ptr %2, i64 16
  br label %5

5:                                                ; preds = %5, %3
  %indvars.iv.i.i = phi i64 [ 0, %3 ], [ %indvars.iv.next.i.i, %5 ]
  %6 = getelementptr inbounds nuw [4 x i64], ptr %4, i64 0, i64 %indvars.iv.i.i
  %7 = load i64, ptr %6, align 8, !tbaa !39
  %8 = icmp eq i64 %7, 0
  %indvars.iv.next.i.i = add nuw nsw i64 %indvars.iv.i.i, 1
  %exitcond.not.i.i = icmp eq i64 %indvars.iv.next.i.i, 4
  %or.cond.i.i = select i1 %8, i1 true, i1 %exitcond.not.i.i
  br i1 %or.cond.i.i, label %ggml_is_empty.exit.i, label %5, !llvm.loop !58

ggml_is_empty.exit.i:                             ; preds = %5
  %9 = getelementptr inbounds nuw i8, ptr %1, i64 16
  br i1 %8, label %.preheader, label %13

.preheader:                                       ; preds = %ggml_is_empty.exit.i, %.preheader
  %indvars.iv.i10.i = phi i64 [ %indvars.iv.next.i11.i, %.preheader ], [ 0, %ggml_is_empty.exit.i ]
  %10 = getelementptr inbounds nuw [4 x i64], ptr %9, i64 0, i64 %indvars.iv.i10.i
  %11 = load i64, ptr %10, align 8, !tbaa !39
  %12 = icmp eq i64 %11, 0
  %indvars.iv.next.i11.i = add nuw nsw i64 %indvars.iv.i10.i, 1
  %exitcond.not.i12.i = icmp eq i64 %indvars.iv.next.i11.i, 4
  %or.cond.i13.i = select i1 %12, i1 true, i1 %exitcond.not.i12.i
  br i1 %or.cond.i13.i, label %ggml_can_repeat.exit, label %.preheader, !llvm.loop !58

13:                                               ; preds = %ggml_is_empty.exit.i
  %14 = load i64, ptr %9, align 8, !tbaa !39
  %15 = load i64, ptr %4, align 8, !tbaa !39
  %16 = srem i64 %14, %15
  %17 = icmp eq i64 %16, 0
  br i1 %17, label %18, label %ggml_can_repeat.exit.thread

18:                                               ; preds = %13
  %19 = getelementptr inbounds nuw i8, ptr %1, i64 24
  %20 = load i64, ptr %19, align 8, !tbaa !39
  %21 = getelementptr inbounds nuw i8, ptr %2, i64 24
  %22 = load i64, ptr %21, align 8, !tbaa !39
  %23 = srem i64 %20, %22
  %24 = icmp eq i64 %23, 0
  br i1 %24, label %25, label %ggml_can_repeat.exit.thread

25:                                               ; preds = %18
  %26 = getelementptr inbounds nuw i8, ptr %1, i64 32
  %27 = load i64, ptr %26, align 8, !tbaa !39
  %28 = getelementptr inbounds nuw i8, ptr %2, i64 32
  %29 = load i64, ptr %28, align 8, !tbaa !39
  %30 = srem i64 %27, %29
  %31 = icmp eq i64 %30, 0
  br i1 %31, label %32, label %ggml_can_repeat.exit.thread

32:                                               ; preds = %25
  %33 = getelementptr inbounds nuw i8, ptr %1, i64 40
  %34 = load i64, ptr %33, align 8, !tbaa !39
  %35 = getelementptr inbounds nuw i8, ptr %2, i64 40
  %36 = load i64, ptr %35, align 8, !tbaa !39
  %37 = srem i64 %34, %36
  %38 = icmp eq i64 %37, 0
  br i1 %38, label %39, label %ggml_can_repeat.exit.thread

ggml_can_repeat.exit:                             ; preds = %.preheader
  br i1 %12, label %39, label %ggml_can_repeat.exit.thread

ggml_can_repeat.exit.thread:                      ; preds = %13, %18, %25, %32, %ggml_can_repeat.exit
  tail call void (ptr, i32, ptr, ...) @ggml_abort(ptr noundef nonnull @.str.12, i32 noundef 2317, ptr noundef nonnull @.str.13, ptr noundef nonnull @.str.28) #47
  unreachable

39:                                               ; preds = %32, %ggml_can_repeat.exit
  %40 = load i32, ptr %1, align 8, !tbaa !40
  %41 = tail call fastcc noundef ptr @ggml_new_tensor_impl(ptr noundef %0, i32 noundef %40, i32 noundef 4, ptr noundef nonnull readonly %4, ptr noundef null, i64 noundef 0)
  %42 = getelementptr inbounds nuw i8, ptr %41, i64 80
  store i32 19, ptr %42, align 8, !tbaa !55
  %43 = getelementptr inbounds nuw i8, ptr %41, i64 152
  store ptr %1, ptr %43, align 8, !tbaa !81
  ret ptr %41
}